target datalayout = "e-m:e-p270:32:32-p271:32:32-p272:64:64-i64:64-i128:128-f80:128-n8:16:32:64-S128"
target triple = "x86_64-pc-linux-gnu"

%struct.rsa_st = type { ptr, ptr, ptr, ptr, ptr, ptr, ptr, ptr, ptr, ptr, %struct.crypto_ex_data_st, i32, i32, %union.crypto_mutex_st, ptr, ptr, ptr, i32, ptr, ptr }
%struct.crypto_ex_data_st = type { ptr }
%union.crypto_mutex_st = type { double, [48 x i8] }

@.str = private unnamed_addr constant [125 x i8] c"generated/home/dtcxzyw/WorkSpace/Projects/compilers/llvm-opt-benchmark/bench/libquic/libquic/boringssl/crypto/rsa/rsa_impl.c\00", align 1

; Function Attrs: nounwind uwtable
define internal i32 @check_modulus_and_exponent_sizes(ptr noundef %0) #0 {
  %2 = alloca i32, align 4
  %3 = alloca ptr, align 8
  %4 = alloca i32, align 4
  %5 = alloca i32, align 4
  store ptr %0, ptr %3, align 8, !tbaa !6
  call void @llvm.lifetime.start.p0(i64 4, ptr %4) #7
  %6 = load ptr, ptr %3, align 8, !tbaa !6
  %7 = getelementptr inbounds nuw %struct.rsa_st, ptr %6, i32 0, i32 1
  %8 = load ptr, ptr %7, align 8, !tbaa !11
  %9 = call i32 @BN_num_bits(ptr noundef %8)
  store i32 %9, ptr %4, align 4, !tbaa !27
  %10 = load i32, ptr %4, align 4, !tbaa !27
  %11 = icmp ugt i32 %10, 16384
  br i1 %11, label %12, label %13

12:                                               ; preds = %1
  call void @ERR_put_error(i32 noundef 4, i32 noundef 0, i32 noundef 128, ptr noundef @.str, i32 noundef 75)
  store i32 0, ptr %2, align 4
  store i32 1, ptr %5, align 4
  br label %25

13:                                               ; preds = %1
  %14 = load ptr, ptr %3, align 8, !tbaa !6
  %15 = getelementptr inbounds nuw %struct.rsa_st, ptr %14, i32 0, i32 2
  %16 = load ptr, ptr %15, align 8, !tbaa !31
  %17 = call i32 @BN_num_bits(ptr noundef %16)
  %18 = icmp ugt i32 %17, 33
  br i1 %18, label %19, label %20

19:                                               ; preds = %13
  call void @ERR_put_error(i32 noundef 4, i32 noundef 0, i32 noundef 101, ptr noundef @.str, i32 noundef 91)
  store i32 0, ptr %2, align 4
  store i32 1, ptr %5, align 4
  br label %25

20:                                               ; preds = %13
  %21 = load i32, ptr %4, align 4, !tbaa !27
  %22 = icmp ule i32 %21, 33
  br i1 %22, label %23, label %24

23:                                               ; preds = %20
  call void @ERR_put_error(i32 noundef 4, i32 noundef 0, i32 noundef 126, ptr noundef @.str, i32 noundef 100)
  store i32 0, ptr %2, align 4
  store i32 1, ptr %5, align 4
  br label %25

24:                                               ; preds = %20
  store i32 1, ptr %2, align 4
  store i32 1, ptr %5, align 4
  br label %25

25:                                               ; preds = %24, %23, %19, %12
  call void @llvm.lifetime.end.p0(i64 4, ptr %4) #7
  %26 = load i32, ptr %2, align 4
  ret i32 %26
}

; Function Attrs: nounwind uwtable
define hidden i32 @rsa_default_encrypt(ptr noundef %0, ptr noundef %1, ptr noundef %2, i64 noundef %3, ptr noundef %4, i64 noundef %5, i32 noundef %6) #0 {
  %8 = alloca i32, align 4
  %9 = alloca ptr, align 8
  %10 = alloca ptr, align 8
  %11 = alloca ptr, align 8
  %12 = alloca i64, align 8
  %13 = alloca ptr, align 8
  %14 = alloca i64, align 8
  %15 = alloca i32, align 4
  %16 = alloca i32, align 4
  %17 = alloca ptr, align 8
  %18 = alloca ptr, align 8
  %19 = alloca ptr, align 8
  %20 = alloca ptr, align 8
  %21 = alloca i32, align 4
  %22 = alloca i32, align 4
  %23 = alloca i32, align 4
  store ptr %0, ptr %9, align 8, !tbaa !6
  store ptr %1, ptr %10, align 8, !tbaa !22
  store ptr %2, ptr %11, align 8, !tbaa !24
  store i64 %3, ptr %12, align 8, !tbaa !25
  store ptr %4, ptr %13, align 8, !tbaa !24
  store i64 %5, ptr %14, align 8, !tbaa !25
  store i32 %6, ptr %15, align 4, !tbaa !27
  call void @llvm.lifetime.start.p0(i64 4, ptr %16) #7
  %24 = load ptr, ptr %9, align 8, !tbaa !6
  %25 = call i32 @RSA_size(ptr noundef %24)
  store i32 %25, ptr %16, align 4, !tbaa !27
  call void @llvm.lifetime.start.p0(i64 8, ptr %17) #7
  call void @llvm.lifetime.start.p0(i64 8, ptr %18) #7
  call void @llvm.lifetime.start.p0(i64 8, ptr %19) #7
  store ptr null, ptr %19, align 8, !tbaa !24
  call void @llvm.lifetime.start.p0(i64 8, ptr %20) #7
  store ptr null, ptr %20, align 8, !tbaa !28
  call void @llvm.lifetime.start.p0(i64 4, ptr %21) #7
  call void @llvm.lifetime.start.p0(i64 4, ptr %22) #7
  store i32 0, ptr %22, align 4, !tbaa !27
  %26 = load i64, ptr %12, align 8, !tbaa !25
  %27 = load i32, ptr %16, align 4, !tbaa !27
  %28 = zext i32 %27 to i64
  %29 = icmp ult i64 %26, %28
  br i1 %29, label %30, label %31

30:                                               ; preds = %7
  call void @ERR_put_error(i32 noundef 4, i32 noundef 0, i32 noundef 135, ptr noundef @.str, i32 noundef 121)
  store i32 0, ptr %8, align 4
  store i32 1, ptr %23, align 4
  br label %158

31:                                               ; preds = %7
  %32 = load ptr, ptr %9, align 8, !tbaa !6
  %33 = call i32 @check_modulus_and_exponent_sizes(ptr noundef %32)
  %34 = icmp ne i32 %33, 0
  br i1 %34, label %36, label %35

35:                                               ; preds = %31
  store i32 0, ptr %8, align 4
  store i32 1, ptr %23, align 4
  br label %158

36:                                               ; preds = %31
  %37 = call ptr @BN_CTX_new()
  store ptr %37, ptr %20, align 8, !tbaa !28
  %38 = load ptr, ptr %20, align 8, !tbaa !28
  %39 = icmp eq ptr %38, null
  br i1 %39, label %40, label %41

40:                                               ; preds = %36
  br label %142

41:                                               ; preds = %36
  %42 = load ptr, ptr %20, align 8, !tbaa !28
  call void @BN_CTX_start(ptr noundef %42)
  %43 = load ptr, ptr %20, align 8, !tbaa !28
  %44 = call ptr @BN_CTX_get(ptr noundef %43)
  store ptr %44, ptr %17, align 8, !tbaa !30
  %45 = load ptr, ptr %20, align 8, !tbaa !28
  %46 = call ptr @BN_CTX_get(ptr noundef %45)
  store ptr %46, ptr %18, align 8, !tbaa !30
  %47 = load i32, ptr %16, align 4, !tbaa !27
  %48 = zext i32 %47 to i64
  %49 = call noalias ptr @malloc(i64 noundef %48) #8
  store ptr %49, ptr %19, align 8, !tbaa !24
  %50 = load ptr, ptr %17, align 8, !tbaa !30
  %51 = icmp ne ptr %50, null
  br i1 %51, label %52, label %58

52:                                               ; preds = %41
  %53 = load ptr, ptr %18, align 8, !tbaa !30
  %54 = icmp ne ptr %53, null
  br i1 %54, label %55, label %58

55:                                               ; preds = %52
  %56 = load ptr, ptr %19, align 8, !tbaa !24
  %57 = icmp ne ptr %56, null
  br i1 %57, label %59, label %58

58:                                               ; preds = %55, %52, %41
  call void @ERR_put_error(i32 noundef 4, i32 noundef 0, i32 noundef 65, ptr noundef @.str, i32 noundef 139)
  br label %142

59:                                               ; preds = %55
  %60 = load i32, ptr %15, align 4, !tbaa !27
  switch i32 %60, label %82 [
    i32 1, label %61
    i32 4, label %68
    i32 3, label %75
  ]

61:                                               ; preds = %59
  %62 = load ptr, ptr %19, align 8, !tbaa !24
  %63 = load i32, ptr %16, align 4, !tbaa !27
  %64 = load ptr, ptr %13, align 8, !tbaa !24
  %65 = load i64, ptr %14, align 8, !tbaa !25
  %66 = trunc i64 %65 to i32
  %67 = call i32 @RSA_padding_add_PKCS1_type_2(ptr noundef %62, i32 noundef %63, ptr noundef %64, i32 noundef %66)
  store i32 %67, ptr %21, align 4, !tbaa !27
  br label %83

68:                                               ; preds = %59
  %69 = load ptr, ptr %19, align 8, !tbaa !24
  %70 = load i32, ptr %16, align 4, !tbaa !27
  %71 = load ptr, ptr %13, align 8, !tbaa !24
  %72 = load i64, ptr %14, align 8, !tbaa !25
  %73 = trunc i64 %72 to i32
  %74 = call i32 @RSA_padding_add_PKCS1_OAEP_mgf1(ptr noundef %69, i32 noundef %70, ptr noundef %71, i32 noundef %73, ptr noundef null, i32 noundef 0, ptr noundef null, ptr noundef null)
  store i32 %74, ptr %21, align 4, !tbaa !27
  br label %83

75:                                               ; preds = %59
  %76 = load ptr, ptr %19, align 8, !tbaa !24
  %77 = load i32, ptr %16, align 4, !tbaa !27
  %78 = load ptr, ptr %13, align 8, !tbaa !24
  %79 = load i64, ptr %14, align 8, !tbaa !25
  %80 = trunc i64 %79 to i32
  %81 = call i32 @RSA_padding_add_none(ptr noundef %76, i32 noundef %77, ptr noundef %78, i32 noundef %80)
  store i32 %81, ptr %21, align 4, !tbaa !27
  br label %83

82:                                               ; preds = %59
  call void @ERR_put_error(i32 noundef 4, i32 noundef 0, i32 noundef 143, ptr noundef @.str, i32 noundef 156)
  br label %142

83:                                               ; preds = %75, %68, %61
  %84 = load i32, ptr %21, align 4, !tbaa !27
  %85 = icmp sle i32 %84, 0
  br i1 %85, label %86, label %87

86:                                               ; preds = %83
  br label %142

87:                                               ; preds = %83
  %88 = load ptr, ptr %19, align 8, !tbaa !24
  %89 = load i32, ptr %16, align 4, !tbaa !27
  %90 = zext i32 %89 to i64
  %91 = load ptr, ptr %17, align 8, !tbaa !30
  %92 = call ptr @BN_bin2bn(ptr noundef %88, i64 noundef %90, ptr noundef %91)
  %93 = icmp eq ptr %92, null
  br i1 %93, label %94, label %95

94:                                               ; preds = %87
  br label %142

95:                                               ; preds = %87
  %96 = load ptr, ptr %17, align 8, !tbaa !30
  %97 = load ptr, ptr %9, align 8, !tbaa !6
  %98 = getelementptr inbounds nuw %struct.rsa_st, ptr %97, i32 0, i32 1
  %99 = load ptr, ptr %98, align 8, !tbaa !11
  %100 = call i32 @BN_ucmp(ptr noundef %96, ptr noundef %99)
  %101 = icmp sge i32 %100, 0
  br i1 %101, label %102, label %103

102:                                              ; preds = %95
  call void @ERR_put_error(i32 noundef 4, i32 noundef 0, i32 noundef 115, ptr noundef @.str, i32 noundef 170)
  br label %142

103:                                              ; preds = %95
  %104 = load ptr, ptr %9, align 8, !tbaa !6
  %105 = getelementptr inbounds nuw %struct.rsa_st, ptr %104, i32 0, i32 14
  %106 = load ptr, ptr %9, align 8, !tbaa !6
  %107 = getelementptr inbounds nuw %struct.rsa_st, ptr %106, i32 0, i32 13
  %108 = load ptr, ptr %9, align 8, !tbaa !6
  %109 = getelementptr inbounds nuw %struct.rsa_st, ptr %108, i32 0, i32 1
  %110 = load ptr, ptr %109, align 8, !tbaa !11
  %111 = load ptr, ptr %20, align 8, !tbaa !28
  %112 = call i32 @BN_MONT_CTX_set_locked(ptr noundef %105, ptr noundef %107, ptr noundef %110, ptr noundef %111)
  %113 = icmp ne i32 %112, 0
  br i1 %113, label %114, label %129

114:                                              ; preds = %103
  %115 = load ptr, ptr %18, align 8, !tbaa !30
  %116 = load ptr, ptr %17, align 8, !tbaa !30
  %117 = load ptr, ptr %9, align 8, !tbaa !6
  %118 = getelementptr inbounds nuw %struct.rsa_st, ptr %117, i32 0, i32 2
  %119 = load ptr, ptr %118, align 8, !tbaa !31
  %120 = load ptr, ptr %9, align 8, !tbaa !6
  %121 = getelementptr inbounds nuw %struct.rsa_st, ptr %120, i32 0, i32 1
  %122 = load ptr, ptr %121, align 8, !tbaa !11
  %123 = load ptr, ptr %20, align 8, !tbaa !28
  %124 = load ptr, ptr %9, align 8, !tbaa !6
  %125 = getelementptr inbounds nuw %struct.rsa_st, ptr %124, i32 0, i32 14
  %126 = load ptr, ptr %125, align 8, !tbaa !32
  %127 = call i32 @BN_mod_exp_mont(ptr noundef %115, ptr noundef %116, ptr noundef %119, ptr noundef %122, ptr noundef %123, ptr noundef %126)
  %128 = icmp ne i32 %127, 0
  br i1 %128, label %130, label %129

129:                                              ; preds = %114, %103
  br label %142

130:                                              ; preds = %114
  %131 = load ptr, ptr %11, align 8, !tbaa !24
  %132 = load i32, ptr %16, align 4, !tbaa !27
  %133 = zext i32 %132 to i64
  %134 = load ptr, ptr %18, align 8, !tbaa !30
  %135 = call i32 @BN_bn2bin_padded(ptr noundef %131, i64 noundef %133, ptr noundef %134)
  %136 = icmp ne i32 %135, 0
  br i1 %136, label %138, label %137

137:                                              ; preds = %130
  call void @ERR_put_error(i32 noundef 4, i32 noundef 0, i32 noundef 68, ptr noundef @.str, i32 noundef 182)
  br label %142

138:                                              ; preds = %130
  %139 = load i32, ptr %16, align 4, !tbaa !27
  %140 = zext i32 %139 to i64
  %141 = load ptr, ptr %10, align 8, !tbaa !22
  store i64 %140, ptr %141, align 8, !tbaa !25
  store i32 1, ptr %22, align 4, !tbaa !27
  br label %142

142:                                              ; preds = %138, %137, %129, %102, %94, %86, %82, %58, %40
  %143 = load ptr, ptr %20, align 8, !tbaa !28
  %144 = icmp ne ptr %143, null
  br i1 %144, label %145, label %148

145:                                              ; preds = %142
  %146 = load ptr, ptr %20, align 8, !tbaa !28
  call void @BN_CTX_end(ptr noundef %146)
  %147 = load ptr, ptr %20, align 8, !tbaa !28
  call void @BN_CTX_free(ptr noundef %147)
  br label %148

148:                                              ; preds = %145, %142
  %149 = load ptr, ptr %19, align 8, !tbaa !24
  %150 = icmp ne ptr %149, null
  br i1 %150, label %151, label %156

151:                                              ; preds = %148
  %152 = load ptr, ptr %19, align 8, !tbaa !24
  %153 = load i32, ptr %16, align 4, !tbaa !27
  %154 = zext i32 %153 to i64
  call void @OPENSSL_cleanse(ptr noundef %152, i64 noundef %154)
  %155 = load ptr, ptr %19, align 8, !tbaa !24
  call void @free(ptr noundef %155) #7
  br label %156

156:                                              ; preds = %151, %148
  %157 = load i32, ptr %22, align 4, !tbaa !27
  store i32 %157, ptr %8, align 4
  store i32 1, ptr %23, align 4
  br label %158

158:                                              ; preds = %156, %35, %30
  call void @llvm.lifetime.end.p0(i64 4, ptr %22) #7
  call void @llvm.lifetime.end.p0(i64 4, ptr %21) #7
  call void @llvm.lifetime.end.p0(i64 8, ptr %20) #7
  call void @llvm.lifetime.end.p0(i64 8, ptr %19) #7
  call void @llvm.lifetime.end.p0(i64 8, ptr %18) #7
  call void @llvm.lifetime.end.p0(i64 8, ptr %17) #7
  call void @llvm.lifetime.end.p0(i64 4, ptr %16) #7
  %159 = load i32, ptr %8, align 4
  ret i32 %159
}