; Function Attrs: nounwind uwtable
define hidden range(i32 0, 2) i32 @rsa_default_encrypt(ptr noundef %0, ptr noundef writeonly captures(none) %1, ptr noundef %2, i64 noundef %3, ptr noundef %4, i64 noundef %5, i32 noundef %6) local_unnamed_addr #0 {
  %8 = tail call i32 @RSA_size(ptr noundef %0) #8
  %9 = zext i32 %8 to i64
  %10 = icmp ult i64 %3, %9
  br i1 %10, label %11, label %12

11:                                               ; preds = %7
  tail call void @ERR_put_error(i32 noundef 4, i32 noundef 0, i32 noundef 135, ptr noundef nonnull @.str, i32 noundef 121) #8
  br label %check_modulus_and_exponent_sizes.exit.thread

12:                                               ; preds = %7
  %13 = getelementptr inbounds nuw i8, ptr %0, i64 8
  %14 = load ptr, ptr %13, align 8, !tbaa !6
  %15 = tail call i32 @BN_num_bits(ptr noundef %14) #8
  %16 = icmp ugt i32 %15, 16384
  br i1 %16, label %17, label %18

17:                                               ; preds = %12
  tail call void @ERR_put_error(i32 noundef 4, i32 noundef 0, i32 noundef 128, ptr noundef nonnull @.str, i32 noundef 75) #8
  br label %check_modulus_and_exponent_sizes.exit.thread

18:                                               ; preds = %12
  %19 = getelementptr inbounds nuw i8, ptr %0, i64 16
  %20 = load ptr, ptr %19, align 8, !tbaa !20
  %21 = tail call i32 @BN_num_bits(ptr noundef %20) #8
  %22 = icmp ugt i32 %21, 33
  br i1 %22, label %23, label %24

23:                                               ; preds = %18
  tail call void @ERR_put_error(i32 noundef 4, i32 noundef 0, i32 noundef 101, ptr noundef nonnull @.str, i32 noundef 91) #8
  br label %check_modulus_and_exponent_sizes.exit.thread

24:                                               ; preds = %18
  %25 = icmp samesign ult i32 %15, 34
  br i1 %25, label %26, label %check_modulus_and_exponent_sizes.exit

26:                                               ; preds = %24
  tail call void @ERR_put_error(i32 noundef 4, i32 noundef 0, i32 noundef 126, ptr noundef nonnull @.str, i32 noundef 100) #8
  br label %check_modulus_and_exponent_sizes.exit.thread

check_modulus_and_exponent_sizes.exit:            ; preds = %24
  %27 = tail call ptr @BN_CTX_new() #8
  %28 = icmp eq ptr %27, null
  br i1 %28, label %check_modulus_and_exponent_sizes.exit.thread, label %29

29:                                               ; preds = %check_modulus_and_exponent_sizes.exit
  tail call void @BN_CTX_start(ptr noundef nonnull %27) #8
  %30 = tail call ptr @BN_CTX_get(ptr noundef nonnull %27) #8
  %31 = tail call ptr @BN_CTX_get(ptr noundef nonnull %27) #8
  %32 = tail call noalias ptr @malloc(i64 noundef %9) #9
  %33 = icmp ne ptr %30, null
  %34 = icmp ne ptr %31, null
  %or.cond = select i1 %33, i1 %34, i1 false
  %35 = icmp ne ptr %32, null
  %or.cond3 = and i1 %or.cond, %35
  br i1 %or.cond3, label %37, label %36

36:                                               ; preds = %29
  tail call void @ERR_put_error(i32 noundef 4, i32 noundef 0, i32 noundef 65, ptr noundef nonnull @.str, i32 noundef 139) #8
  br label %72

37:                                               ; preds = %29
  switch i32 %6, label %47 [
    i32 1, label %38
    i32 4, label %41
    i32 3, label %44
  ]

38:                                               ; preds = %37
  %39 = trunc i64 %5 to i32
  %40 = tail call i32 @RSA_padding_add_PKCS1_type_2(ptr noundef nonnull %32, i32 noundef %8, ptr noundef %4, i32 noundef %39) #8
  br label %48

41:                                               ; preds = %37
  %42 = trunc i64 %5 to i32
  %43 = tail call i32 @RSA_padding_add_PKCS1_OAEP_mgf1(ptr noundef nonnull %32, i32 noundef %8, ptr noundef %4, i32 noundef %42, ptr noundef null, i32 noundef 0, ptr noundef null, ptr noundef null) #8
  br label %48

44:                                               ; preds = %37
  %45 = trunc i64 %5 to i32
  %46 = tail call i32 @RSA_padding_add_none(ptr noundef nonnull %32, i32 noundef %8, ptr noundef %4, i32 noundef %45) #8
  br label %48

47:                                               ; preds = %37
  tail call void @ERR_put_error(i32 noundef 4, i32 noundef 0, i32 noundef 143, ptr noundef nonnull @.str, i32 noundef 156) #8
  br label %72

48:                                               ; preds = %44, %41, %38
  %.057 = phi i32 [ %46, %44 ], [ %43, %41 ], [ %40, %38 ]
  %49 = icmp slt i32 %.057, 1
  br i1 %49, label %72, label %50

50:                                               ; preds = %48
  %51 = tail call ptr @BN_bin2bn(ptr noundef nonnull %32, i64 noundef %9, ptr noundef nonnull %30) #8
  %52 = icmp eq ptr %51, null
  br i1 %52, label %72, label %53

53:                                               ; preds = %50
  %54 = load ptr, ptr %13, align 8, !tbaa !6
  %55 = tail call i32 @BN_ucmp(ptr noundef nonnull %30, ptr noundef %54) #8
  %56 = icmp sgt i32 %55, -1
  br i1 %56, label %57, label %58

57:                                               ; preds = %53
  tail call void @ERR_put_error(i32 noundef 4, i32 noundef 0, i32 noundef 115, ptr noundef nonnull @.str, i32 noundef 170) #8
  br label %72

58:                                               ; preds = %53
  %59 = getelementptr inbounds nuw i8, ptr %0, i64 152
  %60 = getelementptr inbounds nuw i8, ptr %0, i64 96
  %61 = load ptr, ptr %13, align 8, !tbaa !6
  %62 = tail call i32 @BN_MONT_CTX_set_locked(ptr noundef nonnull %59, ptr noundef nonnull %60, ptr noundef %61, ptr noundef nonnull %27) #8
  %.not65 = icmp eq i32 %62, 0
  br i1 %.not65, label %72, label %63

63:                                               ; preds = %58
  %64 = load ptr, ptr %19, align 8, !tbaa !20
  %65 = load ptr, ptr %13, align 8, !tbaa !6
  %66 = load ptr, ptr %59, align 8, !tbaa !21
  %67 = tail call i32 @BN_mod_exp_mont(ptr noundef nonnull %31, ptr noundef nonnull %30, ptr noundef %64, ptr noundef %65, ptr noundef nonnull %27, ptr noundef %66) #8
  %.not66 = icmp eq i32 %67, 0
  br i1 %.not66, label %72, label %68

68:                                               ; preds = %63
  %69 = tail call i32 @BN_bn2bin_padded(ptr noundef %2, i64 noundef %9, ptr noundef nonnull %31) #8
  %.not67 = icmp eq i32 %69, 0
  br i1 %.not67, label %70, label %71

70:                                               ; preds = %68
  tail call void @ERR_put_error(i32 noundef 4, i32 noundef 0, i32 noundef 68, ptr noundef nonnull @.str, i32 noundef 182) #8
  br label %72

71:                                               ; preds = %68
  store i64 %9, ptr %1, align 8, !tbaa !22
  br label %72

72:                                               ; preds = %36, %47, %57, %70, %71, %48, %50, %63, %58
  %.0.ph = phi i32 [ 0, %36 ], [ 0, %58 ], [ 0, %63 ], [ 0, %70 ], [ 1, %71 ], [ 0, %57 ], [ 0, %50 ], [ 0, %48 ], [ 0, %47 ]
  tail call void @BN_CTX_end(ptr noundef nonnull %27) #8
  tail call void @BN_CTX_free(ptr noundef nonnull %27) #8
  %.not69 = icmp eq ptr %32, null
  br i1 %.not69, label %check_modulus_and_exponent_sizes.exit.thread, label %73

73:                                               ; preds = %72
  tail call void @OPENSSL_cleanse(ptr noundef nonnull %32, i64 noundef %9) #8
  tail call void @free(ptr noundef nonnull %32) #8
  br label %check_modulus_and_exponent_sizes.exit.thread

check_modulus_and_exponent_sizes.exit.thread:     ; preds = %check_modulus_and_exponent_sizes.exit, %26, %23, %17, %72, %73, %11
  %.059 = phi i32 [ 0, %11 ], [ %.0.ph, %73 ], [ %.0.ph, %72 ], [ 0, %17 ], [ 0, %23 ], [ 0, %26 ], [ 0, %check_modulus_and_exponent_sizes.exit ]
  ret i32 %.059
}